target datalayout = "e-m:e-p270:32:32-p271:32:32-p272:64:64-i64:64-i128:128-f80:128-n8:16:32:64-S128"
target triple = "x86_64-pc-linux-gnu"

@stderr = external global ptr, align 8
@.str = private unnamed_addr constant [17 x i8] c"JDWP exit error \00", align 1
@.str.1 = private unnamed_addr constant [2 x i8] c"\0A\00", align 1
@.str.2 = private unnamed_addr constant [19 x i8] c"%s(%d): %s [%s:%d]\00", align 1
@.str.4 = private unnamed_addr constant [47 x i8] c"src/jdk.jdwp.agent/share/native/libjdwp/util.c\00", align 1
@index2jdwp = internal global [22 x i8] zeroinitializer, align 16
@.str.123 = private unnamed_addr constant [15 x i8] c"bad EventIndex\00", align 1

; Function Attrs: nounwind uwtable
define hidden zeroext i8 @eventIndex2jdwp(i32 noundef %0) #0 {
  %2 = alloca i32, align 4
  %3 = alloca i8, align 1
  store i32 %0, ptr %2, align 4
  store i8 0, ptr %3, align 1
  %4 = load i32, ptr %2, align 4
  %5 = icmp uge i32 %4, 1
  br i1 %5, label %6, label %15

6:                                                ; preds = %1
  %7 = load i32, ptr %2, align 4
  %8 = icmp ule i32 %7, 22
  br i1 %8, label %9, label %15

9:                                                ; preds = %6
  %10 = load i32, ptr %2, align 4
  %11 = sub i32 %10, 1
  %12 = zext i32 %11 to i64
  %13 = getelementptr inbounds [22 x i8], ptr @index2jdwp, i64 0, i64 %12
  %14 = load i8, ptr %13, align 1
  store i8 %14, ptr %3, align 1
  br label %15

15:                                               ; preds = %9, %6, %1
  %16 = load i8, ptr %3, align 1
  %17 = zext i8 %16 to i32
  %18 = icmp eq i32 %17, 0
  br i1 %18, label %19, label %22

19:                                               ; preds = %15
  %20 = load ptr, ptr @stderr, align 8
  %21 = call ptr @jvmtiErrorText(i32 noundef 191)
  call void (ptr, ptr, ptr, ptr, ...) @print_message(ptr noundef %20, ptr noundef @.str, ptr noundef @.str.1, ptr noundef @.str.2, ptr noundef %21, i32 noundef 191, ptr noundef @.str.123, ptr noundef @.str.4, i32 noundef 1969)
  call void @debugInit_exit(i32 noundef 191, ptr noundef @.str.123)
  br label %22

22:                                               ; preds = %19, %15
  %23 = load i8, ptr %3, align 1
  ret i8 %23
}