; Function Attrs: nounwind uwtable
define hidden zeroext i8 @eventIndex2jdwp(i32 noundef %0) local_unnamed_addr #0 {
  %2 = add i32 %0, -1
  %or.cond = icmp ult i32 %2, 22
  br i1 %or.cond, label %3, label %.thread

3:                                                ; preds = %1
  %4 = zext nneg i32 %2 to i64
  %5 = getelementptr inbounds [22 x i8], ptr @index2jdwp, i64 0, i64 %4
  %6 = load i8, ptr %5, align 1
  %7 = icmp eq i8 %6, 0
  br i1 %7, label %.thread, label %10

.thread:                                          ; preds = %1, %3
  %8 = load ptr, ptr @stderr, align 8
  %9 = tail call ptr @jvmtiErrorText(i32 noundef 191) #14
  tail call void (ptr, ptr, ptr, ptr, ...) @print_message(ptr noundef %8, ptr noundef nonnull @.str, ptr noundef nonnull @.str.1, ptr noundef nonnull @.str.2, ptr noundef %9, i32 noundef 191, ptr noundef nonnull @.str.123, ptr noundef nonnull @.str.4, i32 noundef 1969) #14
  tail call void @debugInit_exit(i32 noundef 191, ptr noundef nonnull @.str.123) #14
  br label %10

10:                                               ; preds = %.thread, %3
  %.08 = phi i8 [ 0, %.thread ], [ %6, %3 ]
  ret i8 %.08
}